; Function Attrs: mustprogress uwtable
define hidden noundef ptr @_ZN8datatype10param_size4size7mk_plusER10ptr_vectorIS1_E(ptr noundef nonnull readonly align 8 captures(none) dereferenceable(8) %0) local_unnamed_addr #4 align 2 personality ptr @__gxx_personality_v0 {
  %2 = load ptr, ptr %0, align 8, !tbaa !112
  %3 = icmp eq ptr %2, null
  br i1 %3, label %_ZNK6vectorIPN8datatype10param_size4sizeELb0EjE5emptyEv.exit.thread, label %_ZNK6vectorIPN8datatype10param_size4sizeELb0EjE5emptyEv.exit

_ZNK6vectorIPN8datatype10param_size4sizeELb0EjE5emptyEv.exit: ; preds = %1
  %4 = getelementptr inbounds i8, ptr %2, i64 -4
  %5 = load i32, ptr %4, align 4, !tbaa !25
  switch i32 %5, label %11 [
    i32 0, label %_ZNK6vectorIPN8datatype10param_size4sizeELb0EjE5emptyEv.exit.thread
    i32 1, label %9
  ]

_ZNK6vectorIPN8datatype10param_size4sizeELb0EjE5emptyEv.exit.thread: ; preds = %_ZNK6vectorIPN8datatype10param_size4sizeELb0EjE5emptyEv.exit, %1
  %6 = tail call noalias noundef ptr @_ZN6memory8allocateEm(i64 noundef 32)
  %7 = getelementptr inbounds nuw i8, ptr %6, i64 8
  store i32 0, ptr %7, align 8, !tbaa !99
  store ptr getelementptr inbounds nuw inrange(-16, 32) (i8, ptr @_ZTVN8datatype10param_size6offsetE, i64 16), ptr %6, align 8, !tbaa !68
  %8 = getelementptr inbounds nuw i8, ptr %6, i64 16
  store i32 0, ptr %8, align 8, !tbaa !102
  %.sroa.415.0..sroa_idx = getelementptr inbounds nuw i8, ptr %6, i64 24
  store i64 0, ptr %.sroa.415.0..sroa_idx, align 8, !tbaa !104
  br label %.loopexit

9:                                                ; preds = %_ZNK6vectorIPN8datatype10param_size4sizeELb0EjE5emptyEv.exit
  %10 = load ptr, ptr %2, align 8, !tbaa !115
  br label %.loopexit

11:                                               ; preds = %_ZNK6vectorIPN8datatype10param_size4sizeELb0EjE5emptyEv.exit
  %12 = load ptr, ptr %2, align 8, !tbaa !115
  br label %13

13:                                               ; preds = %21, %11
  %14 = phi ptr [ %.pre, %21 ], [ %2, %11 ]
  %indvars.iv = phi i64 [ %indvars.iv.next, %21 ], [ 1, %11 ]
  %.011 = phi ptr [ %24, %21 ], [ %12, %11 ]
  %15 = icmp eq ptr %14, null
  br i1 %15, label %_ZNK6vectorIPN8datatype10param_size4sizeELb0EjE4sizeEv.exit14, label %16

16:                                               ; preds = %13
  %17 = getelementptr inbounds i8, ptr %14, i64 -4
  %18 = load i32, ptr %17, align 4, !tbaa !25
  %19 = zext i32 %18 to i64
  br label %_ZNK6vectorIPN8datatype10param_size4sizeELb0EjE4sizeEv.exit14

_ZNK6vectorIPN8datatype10param_size4sizeELb0EjE4sizeEv.exit14: ; preds = %13, %16
  %.0.i13 = phi i64 [ %19, %16 ], [ 0, %13 ]
  %20 = icmp samesign ult i64 %indvars.iv, %.0.i13
  br i1 %20, label %21, label %.loopexit

21:                                               ; preds = %_ZNK6vectorIPN8datatype10param_size4sizeELb0EjE4sizeEv.exit14
  %22 = getelementptr inbounds nuw ptr, ptr %14, i64 %indvars.iv
  %23 = load ptr, ptr %22, align 8, !tbaa !115
  %24 = tail call noalias noundef ptr @_ZN6memory8allocateEm(i64 noundef 32)
  %25 = getelementptr inbounds nuw i8, ptr %24, i64 8
  store i32 0, ptr %25, align 8, !tbaa !99
  store ptr getelementptr inbounds nuw inrange(-16, 32) (i8, ptr @_ZTVN8datatype10param_size4plusE, i64 16), ptr %24, align 8, !tbaa !68
  %26 = getelementptr inbounds nuw i8, ptr %24, i64 16
  store ptr %.011, ptr %26, align 8, !tbaa !106
  %27 = getelementptr inbounds nuw i8, ptr %24, i64 24
  store ptr %23, ptr %27, align 8, !tbaa !108
  %28 = getelementptr inbounds nuw i8, ptr %.011, i64 8
  %29 = load i32, ptr %28, align 8, !tbaa !99
  %30 = add i32 %29, 1
  store i32 %30, ptr %28, align 8, !tbaa !99
  %31 = getelementptr inbounds nuw i8, ptr %23, i64 8
  %32 = load i32, ptr %31, align 8, !tbaa !99
  %33 = add i32 %32, 1
  store i32 %33, ptr %31, align 8, !tbaa !99
  %indvars.iv.next = add nuw nsw i64 %indvars.iv, 1
  %.pre = load ptr, ptr %0, align 8, !tbaa !112
  br label %13, !llvm.loop !117

.loopexit:                                        ; preds = %_ZNK6vectorIPN8datatype10param_size4sizeELb0EjE4sizeEv.exit14, %9, %_ZNK6vectorIPN8datatype10param_size4sizeELb0EjE5emptyEv.exit.thread
  %.012 = phi ptr [ %6, %_ZNK6vectorIPN8datatype10param_size4sizeELb0EjE5emptyEv.exit.thread ], [ %10, %9 ], [ %.011, %_ZNK6vectorIPN8datatype10param_size4sizeELb0EjE4sizeEv.exit14 ]
  ret ptr %.012
}